target datalayout = "e-m:e-p270:32:32-p271:32:32-p272:64:64-i64:64-i128:128-f80:128-n8:16:32:64-S128"
target triple = "x86_64-pc-linux-gnu"

%struct.If_LibLut_t_ = type { ptr, i32, i32, [33 x float], [33 x [33 x float]] }

; Function Attrs: nounwind uwtable
define float @If_LibLutFastestPinDelay(ptr noundef %0) #0 {
  %2 = alloca ptr, align 8
  store ptr %0, ptr %2, align 8, !tbaa !15
  %3 = load ptr, ptr %2, align 8, !tbaa !15
  %4 = icmp ne ptr %3, null
  br i1 %4, label %6, label %5

5:                                                ; preds = %1
  br label %17

6:                                                ; preds = %1
  %7 = load ptr, ptr %2, align 8, !tbaa !15
  %8 = getelementptr inbounds nuw %struct.If_LibLut_t_, ptr %7, i32 0, i32 4
  %9 = load ptr, ptr %2, align 8, !tbaa !15
  %10 = getelementptr inbounds nuw %struct.If_LibLut_t_, ptr %9, i32 0, i32 1
  %11 = load i32, ptr %10, align 8, !tbaa !26
  %12 = sext i32 %11 to i64
  %13 = getelementptr inbounds [33 x [33 x float]], ptr %8, i64 0, i64 %12
  %14 = getelementptr inbounds [33 x float], ptr %13, i64 0, i64 0
  %15 = load float, ptr %14, align 4, !tbaa !21
  %16 = fpext float %15 to double
  br label %17

17:                                               ; preds = %6, %5
  %18 = phi double [ 1.000000e+00, %5 ], [ %16, %6 ]
  %19 = fptrunc double %18 to float
  ret float %19
}