; Function Attrs: mustprogress nofree norecurse nosync nounwind willreturn memory(argmem: read) uwtable
define float @If_LibLutFastestPinDelay(ptr noundef readonly %0) local_unnamed_addr #12 {
  %.not = icmp eq ptr %0, null
  br i1 %.not, label %9, label %2

2:                                                ; preds = %1
  %3 = getelementptr inbounds nuw i8, ptr %0, i64 148
  %4 = getelementptr inbounds nuw i8, ptr %0, i64 8
  %5 = load i32, ptr %4, align 8, !tbaa !15
  %6 = sext i32 %5 to i64
  %7 = getelementptr inbounds [33 x [33 x float]], ptr %3, i64 0, i64 %6
  %8 = load float, ptr %7, align 4, !tbaa !18
  br label %9

9:                                                ; preds = %1, %2
  %10 = phi float [ %8, %2 ], [ 1.000000e+00, %1 ]
  ret float %10
}